target datalayout = "e-m:e-p270:32:32-p271:32:32-p272:64:64-i64:64-i128:128-f80:128-n8:16:32:64-S128"
target triple = "x86_64-pc-linux-gnu"

%struct.rb_data_type_struct = type { ptr, %struct.anon, ptr, ptr, i64 }
%struct.anon = type { ptr, ptr, ptr, ptr, [1 x ptr] }
%struct.rb_random_mt_t = type { %struct.rb_random_struct, %struct.MT }
%struct.rb_random_struct = type { i64 }
%struct.MT = type { [624 x i32], ptr, i32 }

@random_mt_type = internal constant %struct.rb_data_type_struct { ptr @.str.24, %struct.anon { ptr @rb_random_mark, ptr inttoptr (i64 -1 to ptr), ptr @random_mt_memsize, ptr null, [1 x ptr] zeroinitializer }, ptr @rb_random_data_type_1_0, ptr @random_mt_if, i64 1 }, align 8

; Function Attrs: nounwind sspstrong uwtable
define internal ptr @get_rnd_mt(i64 noundef %0) #0 {
  %2 = alloca i64, align 8
  %3 = alloca ptr, align 8
  store i64 %0, ptr %2, align 8, !tbaa !26
  call void @llvm.lifetime.start.p0(i64 8, ptr %3) #24
  %4 = load i64, ptr %2, align 8, !tbaa !26
  %5 = call ptr @rb_check_typeddata(i64 noundef %4, ptr noundef @random_mt_type)
  store ptr %5, ptr %3, align 8, !tbaa !20
  %6 = load ptr, ptr %3, align 8, !tbaa !20
  call void @llvm.lifetime.end.p0(i64 8, ptr %3) #24
  ret ptr %6
}

; Function Attrs: nounwind sspstrong uwtable
define internal i64 @rand_mt_equal(i64 noundef %0, i64 noundef %1) #0 {
  %3 = alloca i64, align 8
  %4 = alloca i64, align 8
  %5 = alloca i64, align 8
  %6 = alloca ptr, align 8
  %7 = alloca ptr, align 8
  %8 = alloca i32, align 4
  store i64 %0, ptr %4, align 8, !tbaa !26
  store i64 %1, ptr %5, align 8, !tbaa !26
  call void @llvm.lifetime.start.p0(i64 8, ptr %6) #24
  call void @llvm.lifetime.start.p0(i64 8, ptr %7) #24
  %9 = load i64, ptr %4, align 8, !tbaa !26
  %10 = call i64 @rb_obj_class(i64 noundef %9)
  %11 = load i64, ptr %5, align 8, !tbaa !26
  %12 = call i64 @rb_obj_class(i64 noundef %11)
  %13 = icmp ne i64 %10, %12
  br i1 %13, label %14, label %15

14:                                               ; preds = %2
  store i64 0, ptr %3, align 8
  store i32 1, ptr %8, align 4
  br label %79

15:                                               ; preds = %2
  %16 = load i64, ptr %4, align 8, !tbaa !26
  %17 = call ptr @get_rnd_mt(i64 noundef %16)
  store ptr %17, ptr %6, align 8, !tbaa !20
  %18 = load i64, ptr %5, align 8, !tbaa !26
  %19 = call ptr @get_rnd_mt(i64 noundef %18)
  store ptr %19, ptr %7, align 8, !tbaa !20
  %20 = load ptr, ptr %6, align 8, !tbaa !20
  %21 = getelementptr inbounds nuw %struct.rb_random_mt_t, ptr %20, i32 0, i32 1
  %22 = getelementptr inbounds nuw %struct.MT, ptr %21, i32 0, i32 0
  %23 = getelementptr inbounds [624 x i32], ptr %22, i64 0, i64 0
  %24 = load ptr, ptr %7, align 8, !tbaa !20
  %25 = getelementptr inbounds nuw %struct.rb_random_mt_t, ptr %24, i32 0, i32 1
  %26 = getelementptr inbounds nuw %struct.MT, ptr %25, i32 0, i32 0
  %27 = getelementptr inbounds [624 x i32], ptr %26, i64 0, i64 0
  %28 = call i32 @memcmp(ptr noundef %23, ptr noundef %27, i64 noundef 2496) #26
  %29 = icmp ne i32 %28, 0
  br i1 %29, label %30, label %31

30:                                               ; preds = %15
  store i64 0, ptr %3, align 8
  store i32 1, ptr %8, align 4
  br label %79

31:                                               ; preds = %15
  %32 = load ptr, ptr %6, align 8, !tbaa !20
  %33 = getelementptr inbounds nuw %struct.rb_random_mt_t, ptr %32, i32 0, i32 1
  %34 = getelementptr inbounds nuw %struct.MT, ptr %33, i32 0, i32 1
  %35 = load ptr, ptr %34, align 8, !tbaa !70
  %36 = load ptr, ptr %6, align 8, !tbaa !20
  %37 = getelementptr inbounds nuw %struct.rb_random_mt_t, ptr %36, i32 0, i32 1
  %38 = getelementptr inbounds nuw %struct.MT, ptr %37, i32 0, i32 0
  %39 = getelementptr inbounds [624 x i32], ptr %38, i64 0, i64 0
  %40 = ptrtoint ptr %35 to i64
  %41 = ptrtoint ptr %39 to i64
  %42 = sub i64 %40, %41
  %43 = sdiv exact i64 %42, 4
  %44 = load ptr, ptr %7, align 8, !tbaa !20
  %45 = getelementptr inbounds nuw %struct.rb_random_mt_t, ptr %44, i32 0, i32 1
  %46 = getelementptr inbounds nuw %struct.MT, ptr %45, i32 0, i32 1
  %47 = load ptr, ptr %46, align 8, !tbaa !70
  %48 = load ptr, ptr %7, align 8, !tbaa !20
  %49 = getelementptr inbounds nuw %struct.rb_random_mt_t, ptr %48, i32 0, i32 1
  %50 = getelementptr inbounds nuw %struct.MT, ptr %49, i32 0, i32 0
  %51 = getelementptr inbounds [624 x i32], ptr %50, i64 0, i64 0
  %52 = ptrtoint ptr %47 to i64
  %53 = ptrtoint ptr %51 to i64
  %54 = sub i64 %52, %53
  %55 = sdiv exact i64 %54, 4
  %56 = icmp ne i64 %43, %55
  br i1 %56, label %57, label %58

57:                                               ; preds = %31
  store i64 0, ptr %3, align 8
  store i32 1, ptr %8, align 4
  br label %79

58:                                               ; preds = %31
  %59 = load ptr, ptr %6, align 8, !tbaa !20
  %60 = getelementptr inbounds nuw %struct.rb_random_mt_t, ptr %59, i32 0, i32 1
  %61 = getelementptr inbounds nuw %struct.MT, ptr %60, i32 0, i32 2
  %62 = load i32, ptr %61, align 8, !tbaa !76
  %63 = load ptr, ptr %7, align 8, !tbaa !20
  %64 = getelementptr inbounds nuw %struct.rb_random_mt_t, ptr %63, i32 0, i32 1
  %65 = getelementptr inbounds nuw %struct.MT, ptr %64, i32 0, i32 2
  %66 = load i32, ptr %65, align 8, !tbaa !76
  %67 = icmp ne i32 %62, %66
  br i1 %67, label %68, label %69

68:                                               ; preds = %58
  store i64 0, ptr %3, align 8
  store i32 1, ptr %8, align 4
  br label %79

69:                                               ; preds = %58
  %70 = load ptr, ptr %6, align 8, !tbaa !20
  %71 = getelementptr inbounds nuw %struct.rb_random_mt_t, ptr %70, i32 0, i32 0
  %72 = getelementptr inbounds nuw %struct.rb_random_struct, ptr %71, i32 0, i32 0
  %73 = load i64, ptr %72, align 8, !tbaa !72
  %74 = load ptr, ptr %7, align 8, !tbaa !20
  %75 = getelementptr inbounds nuw %struct.rb_random_mt_t, ptr %74, i32 0, i32 0
  %76 = getelementptr inbounds nuw %struct.rb_random_struct, ptr %75, i32 0, i32 0
  %77 = load i64, ptr %76, align 8, !tbaa !72
  %78 = call i64 @rb_equal(i64 noundef %73, i64 noundef %77)
  store i64 %78, ptr %3, align 8
  store i32 1, ptr %8, align 4
  br label %79

79:                                               ; preds = %69, %68, %57, %30, %14
  call void @llvm.lifetime.end.p0(i64 8, ptr %7) #24
  call void @llvm.lifetime.end.p0(i64 8, ptr %6) #24
  %80 = load i64, ptr %3, align 8
  ret i64 %80
}