; Function Attrs: nounwind sspstrong uwtable
define internal i64 @rand_mt_equal(i64 noundef %0, i64 noundef %1) #0 {
  %3 = tail call i64 @rb_obj_class(i64 noundef %0) #23
  %4 = tail call i64 @rb_obj_class(i64 noundef %1) #23
  %.not = icmp eq i64 %3, %4
  br i1 %.not, label %5, label %30

5:                                                ; preds = %2
  %6 = tail call ptr @rb_check_typeddata(i64 noundef %0, ptr noundef nonnull @random_mt_type) #23
  %7 = tail call ptr @rb_check_typeddata(i64 noundef %1, ptr noundef nonnull @random_mt_type) #23
  %8 = getelementptr inbounds nuw i8, ptr %6, i64 8
  %9 = getelementptr inbounds nuw i8, ptr %7, i64 8
  %bcmp = tail call i32 @bcmp(ptr noundef nonnull dereferenceable(2496) %8, ptr noundef nonnull dereferenceable(2496) %9, i64 2496)
  %.not14 = icmp eq i32 %bcmp, 0
  br i1 %.not14, label %10, label %30

10:                                               ; preds = %5
  %11 = getelementptr inbounds nuw i8, ptr %6, i64 2504
  %12 = load ptr, ptr %11, align 8, !tbaa !12
  %13 = ptrtoint ptr %12 to i64
  %14 = ptrtoint ptr %8 to i64
  %15 = sub i64 %13, %14
  %16 = getelementptr inbounds nuw i8, ptr %7, i64 2504
  %17 = load ptr, ptr %16, align 8, !tbaa !12
  %18 = ptrtoint ptr %17 to i64
  %19 = ptrtoint ptr %9 to i64
  %20 = sub i64 %18, %19
  %.not15 = icmp eq i64 %15, %20
  br i1 %.not15, label %21, label %30

21:                                               ; preds = %10
  %22 = getelementptr inbounds nuw i8, ptr %6, i64 2512
  %23 = load i32, ptr %22, align 8, !tbaa !81
  %24 = getelementptr inbounds nuw i8, ptr %7, i64 2512
  %25 = load i32, ptr %24, align 8, !tbaa !81
  %.not16 = icmp eq i32 %23, %25
  br i1 %.not16, label %26, label %30

26:                                               ; preds = %21
  %27 = load i64, ptr %6, align 8, !tbaa !19
  %28 = load i64, ptr %7, align 8, !tbaa !19
  %29 = tail call i64 @rb_equal(i64 noundef %27, i64 noundef %28) #23
  br label %30

30:                                               ; preds = %21, %10, %5, %2, %26
  %.0 = phi i64 [ %29, %26 ], [ 0, %2 ], [ 0, %5 ], [ 0, %10 ], [ 0, %21 ]
  ret i64 %.0
}